(lp0
(lp1
F34733.62
aF48453.78
aa(lp2
F35160.63
aF48881.4
aa(lp3
F35590.7
aF49309.43
aa(lp4
F129877.67
aF143586.76
aa(lp5
F24878.879999999997
aF251175.27000000002
aa(lp6
F129852.66999999998
aF143561.75999999998
aa(lp7
F2140.34
aF317576.44000000006
aa.