(lp0
(lp1
F24016.25
aF108500.1
aa(lp2
F30259.15
aF122415.49
aa(lp3
F30734.16
aF122890.76
aa(lp4
F31211.31
aF123370.76000000001
aa(lp5
F32166.899999999998
aF124326.49
aa(lp6
F129140.71
aF136801.71000000002
aa(lp7
F129115.71
aF136776.71000000002
aa(lp8
F32141.9
aF124301.49
aa.