(lp0
(lp1
F95942.08
aF106614.90000000001
aa(lp2
F142282.90999999997
aF147606.15999999997
aa(lp3
F19271.34
aF194597.47
aa(lp4
F19271.34
aF194931.61000000002
aa(lp5
F142257.90999999997
aF147581.15999999997
aa(lp6
F19246.34
aF194906.61
aa.