(lp0
(lp1
F3391.3
aF22607.82
aa(lp2
F1586.76
aF30412.25
aa(lp3
F1586.76
aF54431.9
aa(lp4
F2187.9300000000003
aF55032.08
aa(lp5
F2790.56
aF55633.33
aa(lp6
F3391.3
aF56233.77
aa(lp7
F3992.3700000000003
aF56833.15
aa(lp8
F4594.62
aF57432.26
aa(lp9
F1586.76
aF59232.340000000004
aa(lp10
F2187.9300000000003
aF59833.11
aa(lp11
F2790.56
aF60433.9
aa(lp12
F3366.3
aF22582.820000000003
aa(lp13
F1561.76
aF59207.340000000004
aa.