(lp0
(lp1
F59811.67
aF73936.7
aa(lp2
F128201.26999999999
aF135255.81
aa(lp3
F71284.04000000001
aF163058.15000000002
aa(lp4
F16581.0
aF164823.35
aa(lp5
F5545.849999999999
aF167910.41999999998
aa(lp6
F128176.26999999999
aF135230.81
aa(lp7
F5520.849999999999
aF167885.41999999998
aa.