(lp0
(lp1
F19110.260000000002
aF49114.85
aa(lp2
F19110.260000000002
aF101616.46
aa(lp3
F17234.26
aF107237.67
aa(lp4
F17700.379999999997
aF107706.05
aa(lp5
F19579.32
aF109581.32
aa(lp6
F20049.85
aF110050.88
aa(lp7
F102552.51
aF110050.88
aa(lp8
F102527.51
aF110025.88
aa(lp9
F17675.38
aF107681.05
aa.